target datalayout = "e-m:e-p270:32:32-p271:32:32-p272:64:64-i64:64-i128:128-f80:128-n8:16:32:64-S128"
target triple = "x86_64-unknown-linux-gnu"

%class.svector = type { %class.vector.0 }
%class.vector.0 = type { ptr }
%"class.nla::monic" = type <{ %"class.nla::mon_eq", %class.svector, i8, [3 x i8], i32, i8, i8, [6 x i8] }>
%"class.nla::mon_eq" = type { i32, %class.svector }

; Function Attrs: mustprogress nounwind uwtable
define linkonce_odr hidden noundef i32 @_ZNK6vectorIjLb0EjE4sizeEv(ptr noundef nonnull align 8 dereferenceable(8) %this) #4 comdat align 2 {
entry:
  %retval = alloca i32, align 4
  %this.addr = alloca ptr, align 8
  store ptr %this, ptr %this.addr, align 8
  %this1 = load ptr, ptr %this.addr, align 8
  %m_data = getelementptr inbounds %class.vector.0, ptr %this1, i32 0, i32 0
  %0 = load ptr, ptr %m_data, align 8
  %cmp = icmp eq ptr %0, null
  br i1 %cmp, label %if.then, label %if.end

if.then:                                          ; preds = %entry
  store i32 0, ptr %retval, align 4
  br label %return

if.end:                                           ; preds = %entry
  %m_data2 = getelementptr inbounds %class.vector.0, ptr %this1, i32 0, i32 0
  %1 = load ptr, ptr %m_data2, align 8
  %arrayidx = getelementptr inbounds i32, ptr %1, i64 -1
  %2 = load i32, ptr %arrayidx, align 4
  store i32 %2, ptr %retval, align 4
  br label %return

return:                                           ; preds = %if.end, %if.then
  %3 = load i32, ptr %retval, align 4
  ret i32 %3
}

; Function Attrs: mustprogress nounwind uwtable
define linkonce_odr hidden noundef nonnull align 4 dereferenceable(4) ptr @_ZNK6vectorIjLb0EjEixEj(ptr noundef nonnull align 8 dereferenceable(8) %this, i32 noundef %idx) #4 comdat align 2 {
entry:
  %this.addr = alloca ptr, align 8
  %idx.addr = alloca i32, align 4
  store ptr %this, ptr %this.addr, align 8
  store i32 %idx, ptr %idx.addr, align 4
  %this1 = load ptr, ptr %this.addr, align 8
  %m_data = getelementptr inbounds %class.vector.0, ptr %this1, i32 0, i32 0
  %0 = load ptr, ptr %m_data, align 8
  %1 = load i32, ptr %idx.addr, align 4
  %idxprom = zext i32 %1 to i64
  %arrayidx = getelementptr inbounds i32, ptr %0, i64 %idxprom
  ret ptr %arrayidx
}

; Function Attrs: mustprogress nounwind uwtable
define linkonce_odr hidden noundef nonnull align 8 dereferenceable(8) ptr @_ZNK3nla5monic5rvarsEv(ptr noundef nonnull align 8 dereferenceable(34) %this) #4 comdat align 2 {
entry:
  %this.addr = alloca ptr, align 8
  store ptr %this, ptr %this.addr, align 8
  %this1 = load ptr, ptr %this.addr, align 8
  %m_rvars = getelementptr inbounds %"class.nla::monic", ptr %this1, i32 0, i32 1
  ret ptr %m_rvars
}

; Function Attrs: mustprogress uwtable
define linkonce_odr hidden noundef i32 @_ZNK3nla6mon_eq4sizeEv(ptr noundef nonnull align 8 dereferenceable(16) %this) #5 comdat align 2 {
entry:
  %this.addr = alloca ptr, align 8
  store ptr %this, ptr %this.addr, align 8
  %this1 = load ptr, ptr %this.addr, align 8
  %m_vs = getelementptr inbounds %"class.nla::mon_eq", ptr %this1, i32 0, i32 1
  %call = call noundef i32 @_ZNK6vectorIjLb0EjE4sizeEv(ptr noundef nonnull align 8 dereferenceable(8) %m_vs)
  ret i32 %call
}

; Function Attrs: mustprogress uwtable
define hidden noundef zeroext i1 @_ZNK3nla7emonics16canonize_dividesERNS_5monicES2_(ptr noundef nonnull align 8 dereferenceable(216) %this, ptr noundef nonnull align 8 dereferenceable(34) %m, ptr noundef nonnull align 8 dereferenceable(34) %n) #5 align 2 {
entry:
  %retval = alloca i1, align 1
  %this.addr = alloca ptr, align 8
  %m.addr = alloca ptr, align 8
  %n.addr = alloca ptr, align 8
  %ms = alloca i32, align 4
  %ns = alloca i32, align 4
  %i = alloca i32, align 4
  %j = alloca i32, align 4
  store ptr %this, ptr %this.addr, align 8
  store ptr %m, ptr %m.addr, align 8
  store ptr %n, ptr %n.addr, align 8
  %0 = load ptr, ptr %m.addr, align 8
  %call = call noundef i32 @_ZNK3nla6mon_eq4sizeEv(ptr noundef nonnull align 8 dereferenceable(16) %0)
  %1 = load ptr, ptr %n.addr, align 8
  %call2 = call noundef i32 @_ZNK3nla6mon_eq4sizeEv(ptr noundef nonnull align 8 dereferenceable(16) %1)
  %cmp = icmp ugt i32 %call, %call2
  br i1 %cmp, label %if.then, label %if.end

if.then:                                          ; preds = %entry
  store i1 false, ptr %retval, align 1
  br label %return

if.end:                                           ; preds = %entry
  %2 = load ptr, ptr %m.addr, align 8
  %call3 = call noundef i32 @_ZNK3nla6mon_eq4sizeEv(ptr noundef nonnull align 8 dereferenceable(16) %2)
  store i32 %call3, ptr %ms, align 4
  %3 = load ptr, ptr %n.addr, align 8
  %call4 = call noundef i32 @_ZNK3nla6mon_eq4sizeEv(ptr noundef nonnull align 8 dereferenceable(16) %3)
  store i32 %call4, ptr %ns, align 4
  store i32 0, ptr %i, align 4
  store i32 0, ptr %j, align 4
  br label %while.body

while.body:                                       ; preds = %if.end29, %if.end
  %4 = load i32, ptr %i, align 4
  %5 = load i32, ptr %ms, align 4
  %cmp5 = icmp eq i32 %4, %5
  br i1 %cmp5, label %if.then6, label %if.else

if.then6:                                         ; preds = %while.body
  store i1 true, ptr %retval, align 1
  br label %return

if.else:                                          ; preds = %while.body
  %6 = load i32, ptr %j, align 4
  %7 = load i32, ptr %ns, align 4
  %cmp7 = icmp eq i32 %6, %7
  br i1 %cmp7, label %if.then8, label %if.else9

if.then8:                                         ; preds = %if.else
  store i1 false, ptr %retval, align 1
  br label %return

if.else9:                                         ; preds = %if.else
  %8 = load ptr, ptr %m.addr, align 8
  %call10 = call noundef nonnull align 8 dereferenceable(8) ptr @_ZNK3nla5monic5rvarsEv(ptr noundef nonnull align 8 dereferenceable(34) %8)
  %9 = load i32, ptr %i, align 4
  %call11 = call noundef nonnull align 4 dereferenceable(4) ptr @_ZNK6vectorIjLb0EjEixEj(ptr noundef nonnull align 8 dereferenceable(8) %call10, i32 noundef %9)
  %10 = load i32, ptr %call11, align 4
  %11 = load ptr, ptr %n.addr, align 8
  %call12 = call noundef nonnull align 8 dereferenceable(8) ptr @_ZNK3nla5monic5rvarsEv(ptr noundef nonnull align 8 dereferenceable(34) %11)
  %12 = load i32, ptr %j, align 4
  %call13 = call noundef nonnull align 4 dereferenceable(4) ptr @_ZNK6vectorIjLb0EjEixEj(ptr noundef nonnull align 8 dereferenceable(8) %call12, i32 noundef %12)
  %13 = load i32, ptr %call13, align 4
  %cmp14 = icmp eq i32 %10, %13
  br i1 %cmp14, label %if.then15, label %if.else17

if.then15:                                        ; preds = %if.else9
  %14 = load i32, ptr %i, align 4
  %inc = add i32 %14, 1
  store i32 %inc, ptr %i, align 4
  %15 = load i32, ptr %j, align 4
  %inc16 = add i32 %15, 1
  store i32 %inc16, ptr %j, align 4
  br label %if.end27

if.else17:                                        ; preds = %if.else9
  %16 = load ptr, ptr %m.addr, align 8
  %call18 = call noundef nonnull align 8 dereferenceable(8) ptr @_ZNK3nla5monic5rvarsEv(ptr noundef nonnull align 8 dereferenceable(34) %16)
  %17 = load i32, ptr %i, align 4
  %call19 = call noundef nonnull align 4 dereferenceable(4) ptr @_ZNK6vectorIjLb0EjEixEj(ptr noundef nonnull align 8 dereferenceable(8) %call18, i32 noundef %17)
  %18 = load i32, ptr %call19, align 4
  %19 = load ptr, ptr %n.addr, align 8
  %call20 = call noundef nonnull align 8 dereferenceable(8) ptr @_ZNK3nla5monic5rvarsEv(ptr noundef nonnull align 8 dereferenceable(34) %19)
  %20 = load i32, ptr %j, align 4
  %call21 = call noundef nonnull align 4 dereferenceable(4) ptr @_ZNK6vectorIjLb0EjEixEj(ptr noundef nonnull align 8 dereferenceable(8) %call20, i32 noundef %20)
  %21 = load i32, ptr %call21, align 4
  %cmp22 = icmp ult i32 %18, %21
  br i1 %cmp22, label %if.then23, label %if.else24

if.then23:                                        ; preds = %if.else17
  store i1 false, ptr %retval, align 1
  br label %return

if.else24:                                        ; preds = %if.else17
  %22 = load i32, ptr %j, align 4
  %inc25 = add i32 %22, 1
  store i32 %inc25, ptr %j, align 4
  br label %if.end26

if.end26:                                         ; preds = %if.else24
  br label %if.end27

if.end27:                                         ; preds = %if.end26, %if.then15
  br label %if.end28

if.end28:                                         ; preds = %if.end27
  br label %if.end29

if.end29:                                         ; preds = %if.end28
  br label %while.body, !llvm.loop !12

return:                                           ; preds = %if.then23, %if.then8, %if.then6, %if.then
  %23 = load i1, ptr %retval, align 1
  ret i1 %23
}