; Function Attrs: mustprogress nofree norecurse nosync nounwind willreturn memory(read, inaccessiblemem: none) uwtable
define hidden noundef zeroext i1 @_ZNK3nla7emonics16canonize_dividesERNS_5monicES2_(ptr nocapture noundef nonnull readnone align 8 dereferenceable(216) %this, ptr nocapture noundef nonnull readonly align 8 dereferenceable(34) %m, ptr nocapture noundef nonnull readonly align 8 dereferenceable(34) %n) local_unnamed_addr #7 align 2 {
entry:
  %m_vs.i = getelementptr inbounds i8, ptr %m, i64 8
  %0 = load ptr, ptr %m_vs.i, align 8
  %cmp.i.i = icmp eq ptr %0, null
  br i1 %cmp.i.i, label %_ZNK3nla6mon_eq4sizeEv.exit, label %if.end.i.i

if.end.i.i:                                       ; preds = %entry
  %arrayidx.i.i = getelementptr inbounds i8, ptr %0, i64 -4
  %1 = load i32, ptr %arrayidx.i.i, align 4
  br label %_ZNK3nla6mon_eq4sizeEv.exit

_ZNK3nla6mon_eq4sizeEv.exit:                      ; preds = %entry, %if.end.i.i
  %retval.0.i.i = phi i32 [ %1, %if.end.i.i ], [ 0, %entry ]
  %m_vs.i14 = getelementptr inbounds i8, ptr %n, i64 8
  %2 = load ptr, ptr %m_vs.i14, align 8
  %cmp.i.i15 = icmp eq ptr %2, null
  br i1 %cmp.i.i15, label %_ZNK3nla6mon_eq4sizeEv.exit19, label %if.end.i.i16

if.end.i.i16:                                     ; preds = %_ZNK3nla6mon_eq4sizeEv.exit
  %arrayidx.i.i17 = getelementptr inbounds i8, ptr %2, i64 -4
  %3 = load i32, ptr %arrayidx.i.i17, align 4
  br label %_ZNK3nla6mon_eq4sizeEv.exit19

_ZNK3nla6mon_eq4sizeEv.exit19:                    ; preds = %_ZNK3nla6mon_eq4sizeEv.exit, %if.end.i.i16
  %retval.0.i.i18 = phi i32 [ %3, %if.end.i.i16 ], [ 0, %_ZNK3nla6mon_eq4sizeEv.exit ]
  %cmp = icmp ugt i32 %retval.0.i.i, %retval.0.i.i18
  br i1 %cmp, label %return, label %if.end

if.end:                                           ; preds = %_ZNK3nla6mon_eq4sizeEv.exit19
  br i1 %cmp.i.i, label %_ZNK3nla6mon_eq4sizeEv.exit25, label %if.end.i.i22

if.end.i.i22:                                     ; preds = %if.end
  %arrayidx.i.i23 = getelementptr inbounds i8, ptr %0, i64 -4
  %4 = load i32, ptr %arrayidx.i.i23, align 4
  br label %_ZNK3nla6mon_eq4sizeEv.exit25

_ZNK3nla6mon_eq4sizeEv.exit25:                    ; preds = %if.end, %if.end.i.i22
  %retval.0.i.i24 = phi i32 [ %4, %if.end.i.i22 ], [ 0, %if.end ]
  br i1 %cmp.i.i15, label %_ZNK3nla6mon_eq4sizeEv.exit31, label %if.end.i.i28

if.end.i.i28:                                     ; preds = %_ZNK3nla6mon_eq4sizeEv.exit25
  %arrayidx.i.i29 = getelementptr inbounds i8, ptr %2, i64 -4
  %5 = load i32, ptr %arrayidx.i.i29, align 4
  %6 = zext i32 %5 to i64
  br label %_ZNK3nla6mon_eq4sizeEv.exit31

_ZNK3nla6mon_eq4sizeEv.exit31:                    ; preds = %_ZNK3nla6mon_eq4sizeEv.exit25, %if.end.i.i28
  %retval.0.i.i30 = phi i64 [ %6, %if.end.i.i28 ], [ 0, %_ZNK3nla6mon_eq4sizeEv.exit25 ]
  %cmp541 = icmp eq i32 %retval.0.i.i24, 0
  br i1 %cmp541, label %return, label %if.else.lr.ph

if.else.lr.ph:                                    ; preds = %_ZNK3nla6mon_eq4sizeEv.exit31
  %m_rvars.i = getelementptr inbounds i8, ptr %m, i64 16
  %7 = load ptr, ptr %m_rvars.i, align 8
  %m_rvars.i32 = getelementptr inbounds i8, ptr %n, i64 16
  %8 = load ptr, ptr %m_rvars.i32, align 8
  br label %if.else

if.else:                                          ; preds = %if.else.lr.ph, %if.end29
  %indvars.iv = phi i64 [ 0, %if.else.lr.ph ], [ %indvars.iv.next, %if.end29 ]
  %i.042 = phi i32 [ 0, %if.else.lr.ph ], [ %i.1, %if.end29 ]
  %cmp7 = icmp eq i64 %indvars.iv, %retval.0.i.i30
  br i1 %cmp7, label %return, label %if.else9

if.else9:                                         ; preds = %if.else
  %idxprom.i = zext i32 %i.042 to i64
  %arrayidx.i = getelementptr inbounds i32, ptr %7, i64 %idxprom.i
  %9 = load i32, ptr %arrayidx.i, align 4
  %arrayidx.i34 = getelementptr inbounds i32, ptr %8, i64 %indvars.iv
  %10 = load i32, ptr %arrayidx.i34, align 4
  %cmp14 = icmp eq i32 %9, %10
  br i1 %cmp14, label %if.then15, label %if.else17

if.then15:                                        ; preds = %if.else9
  %inc = add i32 %i.042, 1
  br label %if.end29

if.else17:                                        ; preds = %if.else9
  %cmp22 = icmp ult i32 %9, %10
  br i1 %cmp22, label %return, label %if.end29

if.end29:                                         ; preds = %if.else17, %if.then15
  %i.1 = phi i32 [ %inc, %if.then15 ], [ %i.042, %if.else17 ]
  %indvars.iv.next = add nuw nsw i64 %indvars.iv, 1
  %cmp5 = icmp eq i32 %i.1, %retval.0.i.i24
  br i1 %cmp5, label %return, label %if.else, !llvm.loop !23

return:                                           ; preds = %if.end29, %if.else, %if.else17, %_ZNK3nla6mon_eq4sizeEv.exit31, %_ZNK3nla6mon_eq4sizeEv.exit19
  %retval.0 = phi i1 [ false, %_ZNK3nla6mon_eq4sizeEv.exit19 ], [ true, %_ZNK3nla6mon_eq4sizeEv.exit31 ], [ true, %if.end29 ], [ false, %if.else ], [ false, %if.else17 ]
  ret i1 %retval.0
}